target datalayout = "e-m:e-p270:32:32-p271:32:32-p272:64:64-i64:64-i128:128-f80:128-n8:16:32:64-S128"
target triple = "x86_64-pc-linux-gnu"

@hf_amqp_method_connection_start_ok_client_properties = internal global i32 0, align 4
@hf_amqp_method_connection_start_ok_mechanism = internal global i32 0, align 4
@hf_amqp_method_connection_start_ok_response = internal global i32 0, align 4
@hf_amqp_method_connection_start_ok_locale = internal global i32 0, align 4

; Function Attrs: null_pointer_is_valid sspstrong uwtable
define internal i32 @dissect_amqp_0_9_method_connection_start_ok(ptr noundef %0, ptr noundef %1, i32 noundef %2, ptr noundef %3) #0 {
  %5 = alloca ptr, align 8
  %6 = alloca ptr, align 8
  %7 = alloca i32, align 4
  %8 = alloca ptr, align 8
  %9 = alloca ptr, align 8
  store ptr %0, ptr %5, align 8
  store ptr %1, ptr %6, align 8
  store i32 %2, ptr %7, align 4
  store ptr %3, ptr %8, align 8
  call void @llvm.lifetime.start.p0(i64 8, ptr %9) #11
  %10 = load ptr, ptr %8, align 8
  %11 = load i32, ptr @hf_amqp_method_connection_start_ok_client_properties, align 4
  %12 = load ptr, ptr %5, align 8
  %13 = load i32, ptr %7, align 4
  %14 = add i32 %13, 4
  %15 = load ptr, ptr %5, align 8
  %16 = load i32, ptr %7, align 4
  %17 = call i32 @tvb_get_ntohl(ptr noundef %15, i32 noundef %16)
  %18 = call ptr @proto_tree_add_item(ptr noundef %10, i32 noundef %11, ptr noundef %12, i32 noundef %14, i32 noundef %17, i32 noundef 0)
  store ptr %18, ptr %9, align 8
  %19 = load ptr, ptr %5, align 8
  %20 = load ptr, ptr %6, align 8
  %21 = load i32, ptr %7, align 4
  %22 = add i32 %21, 4
  %23 = load ptr, ptr %5, align 8
  %24 = load i32, ptr %7, align 4
  %25 = call i32 @tvb_get_ntohl(ptr noundef %23, i32 noundef %24)
  %26 = load ptr, ptr %9, align 8
  call void @dissect_amqp_0_9_field_table(ptr noundef %19, ptr noundef %20, i32 noundef %22, i32 noundef %25, ptr noundef %26)
  %27 = load ptr, ptr %5, align 8
  %28 = load i32, ptr %7, align 4
  %29 = call i32 @tvb_get_ntohl(ptr noundef %27, i32 noundef %28)
  %30 = add i32 4, %29
  %31 = load i32, ptr %7, align 4
  %32 = add i32 %31, %30
  store i32 %32, ptr %7, align 4
  %33 = load ptr, ptr %8, align 8
  %34 = load i32, ptr @hf_amqp_method_connection_start_ok_mechanism, align 4
  %35 = load ptr, ptr %5, align 8
  %36 = load i32, ptr %7, align 4
  %37 = call ptr @proto_tree_add_item(ptr noundef %33, i32 noundef %34, ptr noundef %35, i32 noundef %36, i32 noundef 1, i32 noundef 0)
  %38 = load ptr, ptr %5, align 8
  %39 = load i32, ptr %7, align 4
  %40 = call zeroext i8 @tvb_get_uint8(ptr noundef %38, i32 noundef %39)
  %41 = zext i8 %40 to i32
  %42 = add i32 1, %41
  %43 = load i32, ptr %7, align 4
  %44 = add i32 %43, %42
  store i32 %44, ptr %7, align 4
  %45 = load ptr, ptr %8, align 8
  %46 = load i32, ptr @hf_amqp_method_connection_start_ok_response, align 4
  %47 = load ptr, ptr %5, align 8
  %48 = load i32, ptr %7, align 4
  %49 = call ptr @proto_tree_add_item(ptr noundef %45, i32 noundef %46, ptr noundef %47, i32 noundef %48, i32 noundef 4, i32 noundef 0)
  %50 = load ptr, ptr %5, align 8
  %51 = load i32, ptr %7, align 4
  %52 = call i32 @tvb_get_ntohl(ptr noundef %50, i32 noundef %51)
  %53 = add i32 4, %52
  %54 = load i32, ptr %7, align 4
  %55 = add i32 %54, %53
  store i32 %55, ptr %7, align 4
  %56 = load ptr, ptr %8, align 8
  %57 = load i32, ptr @hf_amqp_method_connection_start_ok_locale, align 4
  %58 = load ptr, ptr %5, align 8
  %59 = load i32, ptr %7, align 4
  %60 = call ptr @proto_tree_add_item(ptr noundef %56, i32 noundef %57, ptr noundef %58, i32 noundef %59, i32 noundef 1, i32 noundef 0)
  %61 = load ptr, ptr %5, align 8
  %62 = load i32, ptr %7, align 4
  %63 = call zeroext i8 @tvb_get_uint8(ptr noundef %61, i32 noundef %62)
  %64 = zext i8 %63 to i32
  %65 = add i32 1, %64
  %66 = load i32, ptr %7, align 4
  %67 = add i32 %66, %65
  store i32 %67, ptr %7, align 4
  %68 = load i32, ptr %7, align 4
  call void @llvm.lifetime.end.p0(i64 8, ptr %9) #11
  ret i32 %68
}