; Function Attrs: null_pointer_is_valid sspstrong uwtable
define internal fastcc void @dissect_amqp_0_9_method_connection_start_ok(ptr noundef %0, ptr noundef %1, ptr noundef %2) unnamed_addr #0 {
  %4 = load i32, ptr @hf_amqp_method_connection_start_ok_client_properties, align 4
  %5 = tail call i32 @tvb_get_ntohl(ptr noundef %0, i32 noundef 11)
  %6 = tail call ptr @proto_tree_add_item(ptr noundef %2, i32 noundef %4, ptr noundef %0, i32 noundef 15, i32 noundef %5, i32 noundef 0)
  %7 = tail call i32 @tvb_get_ntohl(ptr noundef %0, i32 noundef 11)
  tail call fastcc void @dissect_amqp_0_9_field_table(ptr noundef %0, ptr noundef %1, i32 noundef 15, i32 noundef %7, ptr noundef %6)
  %8 = tail call i32 @tvb_get_ntohl(ptr noundef %0, i32 noundef 11)
  %9 = add i32 %8, 15
  %10 = load i32, ptr @hf_amqp_method_connection_start_ok_mechanism, align 4
  %11 = tail call ptr @proto_tree_add_item(ptr noundef %2, i32 noundef %10, ptr noundef %0, i32 noundef %9, i32 noundef 1, i32 noundef 0)
  %12 = tail call zeroext i8 @tvb_get_uint8(ptr noundef %0, i32 noundef %9)
  %13 = zext i8 %12 to i32
  %14 = add i32 %8, 16
  %15 = add i32 %14, %13
  %16 = load i32, ptr @hf_amqp_method_connection_start_ok_response, align 4
  %17 = tail call ptr @proto_tree_add_item(ptr noundef %2, i32 noundef %16, ptr noundef %0, i32 noundef %15, i32 noundef 4, i32 noundef 0)
  %18 = tail call i32 @tvb_get_ntohl(ptr noundef %0, i32 noundef %15)
  %19 = add i32 %18, 4
  %20 = add i32 %19, %15
  %21 = load i32, ptr @hf_amqp_method_connection_start_ok_locale, align 4
  %22 = tail call ptr @proto_tree_add_item(ptr noundef %2, i32 noundef %21, ptr noundef %0, i32 noundef %20, i32 noundef 1, i32 noundef 0)
  %23 = tail call zeroext i8 @tvb_get_uint8(ptr noundef %0, i32 noundef %20)
  ret void
}